target datalayout = "e-m:e-p270:32:32-p271:32:32-p272:64:64-i64:64-i128:128-f80:128-n8:16:32:64-S128"
target triple = "x86_64-unknown-linux-gnu"

@_ZL23ID_COMPAT_MATH_CONTINUE = internal constant [10 x i32] [i32 178, i32 180, i32 185, i32 186, i32 8304, i32 8305, i32 8308, i32 8319, i32 8320, i32 8335], align 16
@_ZL20ID_COMPAT_MATH_START = internal constant [13 x i32] [i32 8706, i32 8711, i32 8734, i32 120513, i32 120539, i32 120571, i32 120597, i32 120629, i32 120655, i32 120687, i32 120713, i32 120745, i32 120771], align 16

; Function Attrs: mustprogress nounwind uwtable
define internal noundef signext i8 @_ZL19isIDCompatMathStartRK14BinaryPropertyi9UProperty(ptr noundef nonnull align 8 dereferenceable(16) %0, i32 noundef %c, i32 noundef %1) #2 {
entry:
  %retval = alloca i8, align 1
  %.addr = alloca ptr, align 8
  %c.addr = alloca i32, align 4
  %.addr1 = alloca i32, align 4
  %__range1 = alloca ptr, align 8
  %__begin1 = alloca ptr, align 8
  %__end1 = alloca ptr, align 8
  %startChar = alloca i32, align 4
  store ptr %0, ptr %.addr, align 8
  store i32 %c, ptr %c.addr, align 4
  store i32 %1, ptr %.addr1, align 4
  %2 = load i32, ptr %c.addr, align 4
  %3 = load i32, ptr @_ZL20ID_COMPAT_MATH_START, align 16
  %cmp = icmp slt i32 %2, %3
  br i1 %cmp, label %if.then, label %if.end

if.then:                                          ; preds = %entry
  store i8 0, ptr %retval, align 1
  br label %return

if.end:                                           ; preds = %entry
  store ptr @_ZL20ID_COMPAT_MATH_START, ptr %__range1, align 8
  store ptr @_ZL20ID_COMPAT_MATH_START, ptr %__begin1, align 8
  store ptr getelementptr inbounds (i32, ptr @_ZL20ID_COMPAT_MATH_START, i64 13), ptr %__end1, align 8
  br label %for.cond

for.cond:                                         ; preds = %for.inc, %if.end
  %4 = load ptr, ptr %__begin1, align 8
  %5 = load ptr, ptr %__end1, align 8
  %cmp2 = icmp ne ptr %4, %5
  br i1 %cmp2, label %for.body, label %for.end

for.body:                                         ; preds = %for.cond
  %6 = load ptr, ptr %__begin1, align 8
  %7 = load i32, ptr %6, align 4
  store i32 %7, ptr %startChar, align 4
  %8 = load i32, ptr %c.addr, align 4
  %9 = load i32, ptr %startChar, align 4
  %cmp3 = icmp eq i32 %8, %9
  br i1 %cmp3, label %if.then4, label %if.end5

if.then4:                                         ; preds = %for.body
  store i8 1, ptr %retval, align 1
  br label %return

if.end5:                                          ; preds = %for.body
  br label %for.inc

for.inc:                                          ; preds = %if.end5
  %10 = load ptr, ptr %__begin1, align 8
  %incdec.ptr = getelementptr inbounds i32, ptr %10, i32 1
  store ptr %incdec.ptr, ptr %__begin1, align 8
  br label %for.cond

for.end:                                          ; preds = %for.cond
  store i8 0, ptr %retval, align 1
  br label %return

return:                                           ; preds = %for.end, %if.then4, %if.then
  %11 = load i8, ptr %retval, align 1
  ret i8 %11
}

; Function Attrs: mustprogress nounwind uwtable
define internal noundef signext i8 @_ZL22isIDCompatMathContinueRK14BinaryPropertyi9UProperty(ptr noundef nonnull align 8 dereferenceable(16) %prop, i32 noundef %c, i32 noundef %0) #2 {
entry:
  %retval = alloca i8, align 1
  %prop.addr = alloca ptr, align 8
  %c.addr = alloca i32, align 4
  %.addr = alloca i32, align 4
  %i = alloca i32, align 4
  store ptr %prop, ptr %prop.addr, align 8
  store i32 %c, ptr %c.addr, align 4
  store i32 %0, ptr %.addr, align 4
  store i32 0, ptr %i, align 4
  br label %for.cond

for.cond:                                         ; preds = %for.inc, %entry
  %1 = load i32, ptr %i, align 4
  %cmp = icmp slt i32 %1, 10
  br i1 %cmp, label %for.body, label %for.end

for.body:                                         ; preds = %for.cond
  %2 = load i32, ptr %c.addr, align 4
  %3 = load i32, ptr %i, align 4
  %idxprom = sext i32 %3 to i64
  %arrayidx = getelementptr inbounds [10 x i32], ptr @_ZL23ID_COMPAT_MATH_CONTINUE, i64 0, i64 %idxprom
  %4 = load i32, ptr %arrayidx, align 4
  %cmp1 = icmp slt i32 %2, %4
  br i1 %cmp1, label %if.then, label %if.end

if.then:                                          ; preds = %for.body
  store i8 0, ptr %retval, align 1
  br label %return

if.end:                                           ; preds = %for.body
  %5 = load i32, ptr %c.addr, align 4
  %6 = load i32, ptr %i, align 4
  %add = add nsw i32 %6, 1
  %idxprom2 = sext i32 %add to i64
  %arrayidx3 = getelementptr inbounds [10 x i32], ptr @_ZL23ID_COMPAT_MATH_CONTINUE, i64 0, i64 %idxprom2
  %7 = load i32, ptr %arrayidx3, align 4
  %cmp4 = icmp slt i32 %5, %7
  br i1 %cmp4, label %if.then5, label %if.end6

if.then5:                                         ; preds = %if.end
  store i8 1, ptr %retval, align 1
  br label %return

if.end6:                                          ; preds = %if.end
  br label %for.inc

for.inc:                                          ; preds = %if.end6
  %8 = load i32, ptr %i, align 4
  %add7 = add nsw i32 %8, 2
  store i32 %add7, ptr %i, align 4
  br label %for.cond, !llvm.loop !8

for.end:                                          ; preds = %for.cond
  %9 = load ptr, ptr %prop.addr, align 8
  %10 = load i32, ptr %c.addr, align 4
  %call = call noundef signext i8 @_ZL19isIDCompatMathStartRK14BinaryPropertyi9UProperty(ptr noundef nonnull align 8 dereferenceable(16) %9, i32 noundef %10, i32 noundef 73)
  store i8 %call, ptr %retval, align 1
  br label %return

return:                                           ; preds = %for.end, %if.then5, %if.then
  %11 = load i8, ptr %retval, align 1
  ret i8 %11
}