; Function Attrs: mustprogress nofree norecurse nosync nounwind willreturn memory(none) uwtable
define internal noundef signext i8 @_ZL22isIDCompatMathContinueRK14BinaryPropertyi9UProperty(ptr nocapture nonnull readnone align 8 %prop, i32 noundef %c, i32 %0) #2 {
entry:
  br label %for.body

for.cond:                                         ; preds = %if.end
  %indvars.iv.next = add nuw nsw i64 %indvars.iv, 2
  %cmp = icmp ult i64 %indvars.iv, 8
  br i1 %cmp, label %for.body, label %for.end, !llvm.loop !15

for.body:                                         ; preds = %entry, %for.cond
  %indvars.iv = phi i64 [ 0, %entry ], [ %indvars.iv.next, %for.cond ]
  %arrayidx = getelementptr inbounds [10 x i32], ptr @_ZL23ID_COMPAT_MATH_CONTINUE, i64 0, i64 %indvars.iv
  %1 = load i32, ptr %arrayidx, align 8
  %cmp1 = icmp sgt i32 %1, %c
  br i1 %cmp1, label %return, label %if.end

if.end:                                           ; preds = %for.body
  %2 = or disjoint i64 %indvars.iv, 1
  %arrayidx3 = getelementptr inbounds [10 x i32], ptr @_ZL23ID_COMPAT_MATH_CONTINUE, i64 0, i64 %2
  %3 = load i32, ptr %arrayidx3, align 4
  %cmp4 = icmp sgt i32 %3, %c
  br i1 %cmp4, label %return, label %for.cond

for.end:                                          ; preds = %for.cond
  %cmp.i = icmp slt i32 %c, 8706
  br i1 %cmp.i, label %return, label %for.body.i

for.cond.i:                                       ; preds = %for.body.i
  %__begin1.0.add.i = add nuw nsw i64 %__begin1.0.idx4.i, 4
  %cmp2.not.i = icmp eq i64 %__begin1.0.add.i, 52
  br i1 %cmp2.not.i, label %return, label %for.body.i

for.body.i:                                       ; preds = %for.end, %for.cond.i
  %__begin1.0.idx4.i = phi i64 [ %__begin1.0.add.i, %for.cond.i ], [ 0, %for.end ]
  %__begin1.0.ptr.i = getelementptr inbounds i8, ptr @_ZL20ID_COMPAT_MATH_START, i64 %__begin1.0.idx4.i
  %4 = load i32, ptr %__begin1.0.ptr.i, align 4
  %cmp3.i = icmp eq i32 %4, %c
  br i1 %cmp3.i, label %return, label %for.cond.i

return:                                           ; preds = %if.end, %for.body, %for.body.i, %for.cond.i, %for.end
  %retval.0 = phi i8 [ 0, %for.end ], [ 1, %for.body.i ], [ 0, %for.cond.i ], [ 1, %if.end ], [ 0, %for.body ]
  ret i8 %retval.0
}